target datalayout = "e-m:e-p270:32:32-p271:32:32-p272:64:64-i64:64-i128:128-f80:128-n8:16:32:64-S128"
target triple = "x86_64-pc-linux-gnu"

%"class.OpenSubdiv::v3_6_0::Bfr::(anonymous namespace)::FacetArray" = type { ptr, i32, i32 }
%"struct.OpenSubdiv::v3_6_0::Bfr::(anonymous namespace)::FacetStrip" = type { i8, i32, i32, i32, i32, i32, i32, i32 }

; Function Attrs: mustprogress nounwind uwtable
define internal void @_ZN10OpenSubdiv6v3_6_03Bfr12_GLOBAL__N_110FacetStripC2Ev(ptr noundef nonnull align 4 dereferenceable(32) %0) unnamed_addr #1 align 2 {
  %2 = alloca ptr, align 8
  store ptr %0, ptr %2, align 8
  %3 = load ptr, ptr %2, align 8
  call void @llvm.memset.p0.i64(ptr align 1 %3, i8 0, i64 32, i1 false)
  ret void
}

; Function Attrs: mustprogress nounwind uwtable
define internal void @_ZN10OpenSubdiv6v3_6_03Bfr12_GLOBAL__N_110FacetArrayD2Ev(ptr noundef nonnull align 8 dereferenceable(16) %0) unnamed_addr #1 align 2 {
  %2 = alloca ptr, align 8
  store ptr %0, ptr %2, align 8
  ret void
}

; Function Attrs: mustprogress uwtable
define internal noundef i32 @_ZN10OpenSubdiv6v3_6_03Bfr4quad20getSingleStripFacetsEiiibNS1_12_GLOBAL__N_110FacetArrayE(i32 noundef %0, i32 noundef %1, i32 noundef %2, i1 noundef zeroext %3, ptr noundef %4) #0 align 2 personality ptr @__gxx_personality_v0 {
  %6 = alloca i32, align 4
  %7 = alloca i32, align 4
  %8 = alloca i32, align 4
  %9 = alloca i32, align 4
  %10 = alloca i8, align 1
  %11 = alloca ptr, align 8
  %12 = alloca %"struct.OpenSubdiv::v3_6_0::Bfr::(anonymous namespace)::FacetStrip", align 4
  %13 = alloca %"class.OpenSubdiv::v3_6_0::Bfr::(anonymous namespace)::FacetArray", align 8
  %14 = alloca ptr, align 8
  %15 = alloca i32, align 4
  %16 = alloca %"class.OpenSubdiv::v3_6_0::Bfr::(anonymous namespace)::FacetArray", align 8
  store i32 %0, ptr %7, align 4
  store i32 %1, ptr %8, align 4
  store i32 %2, ptr %9, align 4
  %17 = zext i1 %3 to i8
  store i8 %17, ptr %10, align 1
  store ptr %4, ptr %11, align 8
  call void @_ZN10OpenSubdiv6v3_6_03Bfr12_GLOBAL__N_110FacetStripC2Ev(ptr noundef nonnull align 4 dereferenceable(32) %12)
  %18 = load i8, ptr %12, align 4
  %19 = and i8 %18, -2
  %20 = or i8 %19, 1
  store i8 %20, ptr %12, align 4
  %21 = load i8, ptr %10, align 1
  %22 = trunc i8 %21 to i1
  %23 = zext i1 %22 to i32
  %24 = trunc i32 %23 to i8
  %25 = load i8, ptr %12, align 4
  %26 = and i8 %24, 1
  %27 = shl i8 %26, 1
  %28 = and i8 %25, -3
  %29 = or i8 %28, %27
  store i8 %29, ptr %12, align 4
  %30 = load i8, ptr %12, align 4
  %31 = and i8 %30, -17
  %32 = or i8 %31, 0
  store i8 %32, ptr %12, align 4
  %33 = load i8, ptr %12, align 4
  %34 = and i8 %33, -33
  %35 = or i8 %34, 0
  store i8 %35, ptr %12, align 4
  %36 = load i8, ptr %12, align 4
  %37 = and i8 %36, -5
  %38 = or i8 %37, 4
  store i8 %38, ptr %12, align 4
  %39 = load i8, ptr %12, align 4
  %40 = and i8 %39, -65
  %41 = or i8 %40, 64
  store i8 %41, ptr %12, align 4
  %42 = load i32, ptr %7, align 4
  %43 = icmp sgt i32 %42, 1
  br i1 %43, label %44, label %76

44:                                               ; preds = %5
  %45 = load i32, ptr %7, align 4
  %46 = getelementptr inbounds nuw %"struct.OpenSubdiv::v3_6_0::Bfr::(anonymous namespace)::FacetStrip", ptr %12, i32 0, i32 1
  store i32 %45, ptr %46, align 4
  %47 = load i32, ptr %7, align 4
  %48 = sub nsw i32 %47, 2
  %49 = getelementptr inbounds nuw %"struct.OpenSubdiv::v3_6_0::Bfr::(anonymous namespace)::FacetStrip", ptr %12, i32 0, i32 2
  store i32 %48, ptr %49, align 4
  %50 = load i32, ptr %9, align 4
  %51 = getelementptr inbounds nuw %"struct.OpenSubdiv::v3_6_0::Bfr::(anonymous namespace)::FacetStrip", ptr %12, i32 0, i32 3
  store i32 %50, ptr %51, align 4
  %52 = getelementptr inbounds nuw %"struct.OpenSubdiv::v3_6_0::Bfr::(anonymous namespace)::FacetStrip", ptr %12, i32 0, i32 3
  %53 = load i32, ptr %52, align 4
  %54 = load i32, ptr %7, align 4
  %55 = add nsw i32 %53, %54
  %56 = getelementptr inbounds nuw %"struct.OpenSubdiv::v3_6_0::Bfr::(anonymous namespace)::FacetStrip", ptr %12, i32 0, i32 4
  store i32 %55, ptr %56, align 4
  %57 = getelementptr inbounds nuw %"struct.OpenSubdiv::v3_6_0::Bfr::(anonymous namespace)::FacetStrip", ptr %12, i32 0, i32 4
  %58 = load i32, ptr %57, align 4
  %59 = add nsw i32 %58, 2
  %60 = getelementptr inbounds nuw %"struct.OpenSubdiv::v3_6_0::Bfr::(anonymous namespace)::FacetStrip", ptr %12, i32 0, i32 7
  store i32 %59, ptr %60, align 4
  %61 = getelementptr inbounds nuw %"struct.OpenSubdiv::v3_6_0::Bfr::(anonymous namespace)::FacetStrip", ptr %12, i32 0, i32 4
  %62 = load i32, ptr %61, align 4
  %63 = load i32, ptr %7, align 4
  %64 = add nsw i32 %62, %63
  %65 = getelementptr inbounds nuw %"struct.OpenSubdiv::v3_6_0::Bfr::(anonymous namespace)::FacetStrip", ptr %12, i32 0, i32 6
  store i32 %64, ptr %65, align 4
  %66 = getelementptr inbounds nuw %"struct.OpenSubdiv::v3_6_0::Bfr::(anonymous namespace)::FacetStrip", ptr %12, i32 0, i32 6
  %67 = load i32, ptr %66, align 4
  %68 = add nsw i32 %67, 1
  %69 = getelementptr inbounds nuw %"struct.OpenSubdiv::v3_6_0::Bfr::(anonymous namespace)::FacetStrip", ptr %12, i32 0, i32 5
  store i32 %68, ptr %69, align 4
  call void @llvm.memcpy.p0.p0.i64(ptr align 8 %13, ptr align 8 %4, i64 16, i1 false)
  %70 = invoke noundef i32 @_ZNK10OpenSubdiv6v3_6_03Bfr12_GLOBAL__N_110FacetStrip19connectUniformQuadsENS2_10FacetArrayE(ptr noundef nonnull align 4 dereferenceable(32) %12, ptr noundef %13)
          to label %71 unwind label %72

71:                                               ; preds = %44
  store i32 %70, ptr %6, align 4
  call void @_ZN10OpenSubdiv6v3_6_03Bfr12_GLOBAL__N_110FacetArrayD2Ev(ptr noundef nonnull align 8 dereferenceable(16) %13) #8
  br label %107

72:                                               ; preds = %44
  %73 = landingpad { ptr, i32 }
          cleanup
  %74 = extractvalue { ptr, i32 } %73, 0
  store ptr %74, ptr %14, align 8
  %75 = extractvalue { ptr, i32 } %73, 1
  store i32 %75, ptr %15, align 4
  call void @_ZN10OpenSubdiv6v3_6_03Bfr12_GLOBAL__N_110FacetArrayD2Ev(ptr noundef nonnull align 8 dereferenceable(16) %13) #8
  br label %109

76:                                               ; preds = %5
  %77 = load i32, ptr %8, align 4
  %78 = getelementptr inbounds nuw %"struct.OpenSubdiv::v3_6_0::Bfr::(anonymous namespace)::FacetStrip", ptr %12, i32 0, i32 1
  store i32 %77, ptr %78, align 4
  %79 = load i32, ptr %8, align 4
  %80 = sub nsw i32 %79, 2
  %81 = getelementptr inbounds nuw %"struct.OpenSubdiv::v3_6_0::Bfr::(anonymous namespace)::FacetStrip", ptr %12, i32 0, i32 2
  store i32 %80, ptr %81, align 4
  %82 = load i32, ptr %9, align 4
  %83 = getelementptr inbounds nuw %"struct.OpenSubdiv::v3_6_0::Bfr::(anonymous namespace)::FacetStrip", ptr %12, i32 0, i32 5
  store i32 %82, ptr %83, align 4
  %84 = load i32, ptr %9, align 4
  %85 = add nsw i32 %84, 1
  %86 = getelementptr inbounds nuw %"struct.OpenSubdiv::v3_6_0::Bfr::(anonymous namespace)::FacetStrip", ptr %12, i32 0, i32 3
  store i32 %85, ptr %86, align 4
  %87 = getelementptr inbounds nuw %"struct.OpenSubdiv::v3_6_0::Bfr::(anonymous namespace)::FacetStrip", ptr %12, i32 0, i32 3
  %88 = load i32, ptr %87, align 4
  %89 = load i32, ptr %8, align 4
  %90 = add nsw i32 %88, %89
  %91 = getelementptr inbounds nuw %"struct.OpenSubdiv::v3_6_0::Bfr::(anonymous namespace)::FacetStrip", ptr %12, i32 0, i32 4
  store i32 %90, ptr %91, align 4
  %92 = getelementptr inbounds nuw %"struct.OpenSubdiv::v3_6_0::Bfr::(anonymous namespace)::FacetStrip", ptr %12, i32 0, i32 4
  %93 = load i32, ptr %92, align 4
  %94 = add nsw i32 %93, 2
  %95 = getelementptr inbounds nuw %"struct.OpenSubdiv::v3_6_0::Bfr::(anonymous namespace)::FacetStrip", ptr %12, i32 0, i32 7
  store i32 %94, ptr %95, align 4
  %96 = getelementptr inbounds nuw %"struct.OpenSubdiv::v3_6_0::Bfr::(anonymous namespace)::FacetStrip", ptr %12, i32 0, i32 4
  %97 = load i32, ptr %96, align 4
  %98 = load i32, ptr %8, align 4
  %99 = add nsw i32 %97, %98
  %100 = getelementptr inbounds nuw %"struct.OpenSubdiv::v3_6_0::Bfr::(anonymous namespace)::FacetStrip", ptr %12, i32 0, i32 6
  store i32 %99, ptr %100, align 4
  call void @llvm.memcpy.p0.p0.i64(ptr align 8 %16, ptr align 8 %4, i64 16, i1 false)
  %101 = invoke noundef i32 @_ZNK10OpenSubdiv6v3_6_03Bfr12_GLOBAL__N_110FacetStrip19connectUniformQuadsENS2_10FacetArrayE(ptr noundef nonnull align 4 dereferenceable(32) %12, ptr noundef %16)
          to label %102 unwind label %103

102:                                              ; preds = %76
  store i32 %101, ptr %6, align 4
  call void @_ZN10OpenSubdiv6v3_6_03Bfr12_GLOBAL__N_110FacetArrayD2Ev(ptr noundef nonnull align 8 dereferenceable(16) %16) #8
  br label %107

103:                                              ; preds = %76
  %104 = landingpad { ptr, i32 }
          cleanup
  %105 = extractvalue { ptr, i32 } %104, 0
  store ptr %105, ptr %14, align 8
  %106 = extractvalue { ptr, i32 } %104, 1
  store i32 %106, ptr %15, align 4
  call void @_ZN10OpenSubdiv6v3_6_03Bfr12_GLOBAL__N_110FacetArrayD2Ev(ptr noundef nonnull align 8 dereferenceable(16) %16) #8
  br label %109

107:                                              ; preds = %102, %71
  %108 = load i32, ptr %6, align 4
  ret i32 %108

109:                                              ; preds = %103, %72
  %110 = load ptr, ptr %14, align 8
  %111 = load i32, ptr %15, align 4
  %112 = insertvalue { ptr, i32 } poison, ptr %110, 0
  %113 = insertvalue { ptr, i32 } %112, i32 %111, 1
  resume { ptr, i32 } %113
}

; Function Attrs: mustprogress uwtable
define internal noundef i32 @_ZN10OpenSubdiv6v3_6_03Bfr4quad18GetSegmentedFacetsEPKibNS1_12_GLOBAL__N_110FacetArrayE(ptr noundef %0, i1 noundef zeroext %1, ptr noundef %2) #0 align 2 personality ptr @__gxx_personality_v0 {
  %4 = alloca ptr, align 8
  %5 = alloca i8, align 1
  %6 = alloca ptr, align 8
  %7 = alloca i32, align 4
  %8 = alloca i32, align 4
  %9 = alloca %"class.OpenSubdiv::v3_6_0::Bfr::(anonymous namespace)::FacetArray", align 8
  %10 = alloca ptr, align 8
  %11 = alloca i32, align 4
  store ptr %0, ptr %4, align 8
  %12 = zext i1 %1 to i8
  store i8 %12, ptr %5, align 1
  store ptr %2, ptr %6, align 8
  %13 = load ptr, ptr %4, align 8
  %14 = getelementptr inbounds i32, ptr %13, i64 0
  %15 = load i32, ptr %14, align 4
  store i32 %15, ptr %7, align 4
  %16 = load ptr, ptr %4, align 8
  %17 = getelementptr inbounds i32, ptr %16, i64 1
  %18 = load i32, ptr %17, align 4
  store i32 %18, ptr %8, align 4
  %19 = load i32, ptr %7, align 4
  %20 = load i32, ptr %8, align 4
  %21 = load i8, ptr %5, align 1
  %22 = trunc i8 %21 to i1
  call void @llvm.memcpy.p0.p0.i64(ptr align 8 %9, ptr align 8 %2, i64 16, i1 false)
  %23 = invoke noundef i32 @_ZN10OpenSubdiv6v3_6_03Bfr4quad20getSingleStripFacetsEiiibNS1_12_GLOBAL__N_110FacetArrayE(i32 noundef %19, i32 noundef %20, i32 noundef 0, i1 noundef zeroext %22, ptr noundef %9)
          to label %24 unwind label %25

24:                                               ; preds = %3
  call void @_ZN10OpenSubdiv6v3_6_03Bfr12_GLOBAL__N_110FacetArrayD2Ev(ptr noundef nonnull align 8 dereferenceable(16) %9) #8
  ret i32 %23

25:                                               ; preds = %3
  %26 = landingpad { ptr, i32 }
          cleanup
  %27 = extractvalue { ptr, i32 } %26, 0
  store ptr %27, ptr %10, align 8
  %28 = extractvalue { ptr, i32 } %26, 1
  store i32 %28, ptr %11, align 4
  call void @_ZN10OpenSubdiv6v3_6_03Bfr12_GLOBAL__N_110FacetArrayD2Ev(ptr noundef nonnull align 8 dereferenceable(16) %9) #8
  br label %29

29:                                               ; preds = %25
  %30 = load ptr, ptr %10, align 8
  %31 = load i32, ptr %11, align 4
  %32 = insertvalue { ptr, i32 } poison, ptr %30, 0
  %33 = insertvalue { ptr, i32 } %32, i32 %31, 1
  resume { ptr, i32 } %33
}