; Function Attrs: mustprogress nofree norecurse nosync nounwind memory(write, argmem: readwrite, inaccessiblemem: none) uwtable
define internal fastcc noundef i32 @_ZN10OpenSubdiv6v3_6_03Bfr4quad18GetSegmentedFacetsEPKibNS1_12_GLOBAL__N_110FacetArrayE(i32 %.0.val, i32 %.4.val, i1 noundef zeroext %0, ptr nocapture noundef readonly %1) unnamed_addr #15 align 2 personality ptr @__gxx_personality_v0 {
  %3 = alloca %"struct.OpenSubdiv::v3_6_0::Bfr::(anonymous namespace)::FacetStrip", align 4
  %4 = alloca %"class.OpenSubdiv::v3_6_0::Bfr::(anonymous namespace)::FacetArray", align 8
  %5 = alloca %"class.OpenSubdiv::v3_6_0::Bfr::(anonymous namespace)::FacetArray", align 8
  call void @llvm.lifetime.start.p0(i64 32, ptr nonnull %3)
  call void @llvm.lifetime.start.p0(i64 16, ptr nonnull %4)
  call void @llvm.lifetime.start.p0(i64 16, ptr nonnull %5)
  call void @llvm.memset.p0.i64(ptr noundef nonnull align 4 dereferenceable(32) %3, i8 0, i64 28, i1 false)
  %6 = select i1 %0, i8 71, i8 69
  store i8 %6, ptr %3, align 4
  %7 = icmp sgt i32 %.0.val, 1
  %.sink22.i.sroa.gep1 = getelementptr inbounds nuw i8, ptr %3, i64 24
  br i1 %7, label %8, label %12

8:                                                ; preds = %2
  %.sink22.i.sroa.gep = getelementptr inbounds nuw i8, ptr %3, i64 20
  %9 = add nuw nsw i32 %.0.val, 2
  %10 = shl nuw nsw i32 %.0.val, 1
  store i32 %10, ptr %.sink22.i.sroa.gep1, align 4
  %11 = or disjoint i32 %10, 1
  br label %16

12:                                               ; preds = %2
  %13 = add nsw i32 %.4.val, 1
  %14 = add nsw i32 %.4.val, 3
  %15 = add nsw i32 %13, %.4.val
  br label %16

16:                                               ; preds = %12, %8
  %.4.val.sink = phi i32 [ %.0.val, %8 ], [ %.4.val, %12 ]
  %.sink3 = phi i32 [ 0, %8 ], [ 1, %12 ]
  %.sink2 = phi i32 [ %.0.val, %8 ], [ %13, %12 ]
  %.sink = phi i32 [ %9, %8 ], [ %14, %12 ]
  %.sink22.i.sroa.phi = phi ptr [ %.sink22.i.sroa.gep, %8 ], [ %.sink22.i.sroa.gep1, %12 ]
  %.sink20.i = phi i32 [ %11, %8 ], [ %15, %12 ]
  %.sink19.i = phi ptr [ %4, %8 ], [ %5, %12 ]
  %.sink4 = add nsw i32 %.4.val.sink, -2
  %17 = getelementptr inbounds nuw i8, ptr %3, i64 8
  %18 = getelementptr inbounds nuw i8, ptr %3, i64 4
  store i32 %.4.val.sink, ptr %18, align 4
  store i32 %.sink4, ptr %17, align 4
  %19 = getelementptr inbounds nuw i8, ptr %3, i64 12
  store i32 %.sink3, ptr %19, align 4
  %20 = getelementptr inbounds nuw i8, ptr %3, i64 16
  store i32 %.sink2, ptr %20, align 4
  %21 = getelementptr inbounds nuw i8, ptr %3, i64 28
  store i32 %.sink, ptr %21, align 4
  store i32 %.sink20.i, ptr %.sink22.i.sroa.phi, align 4
  call void @llvm.memcpy.p0.p0.i64(ptr noundef nonnull align 8 dereferenceable(16) %.sink19.i, ptr noundef nonnull align 8 dereferenceable(16) %1, i64 16, i1 false)
  %22 = call fastcc noundef i32 @_ZNK10OpenSubdiv6v3_6_03Bfr12_GLOBAL__N_110FacetStrip19connectUniformQuadsENS2_10FacetArrayE(ptr noundef nonnull align 4 dereferenceable(32) %3, ptr noundef nonnull %.sink19.i)
  call void @llvm.lifetime.end.p0(i64 32, ptr nonnull %3)
  call void @llvm.lifetime.end.p0(i64 16, ptr nonnull %4)
  call void @llvm.lifetime.end.p0(i64 16, ptr nonnull %5)
  ret i32 %22
}